; Function Attrs: mustprogress uwtable
define noundef zeroext i1 @_ZNK3net25QuicReceivedPacketManager17HasMissingPacketsEv(ptr noundef nonnull align 8 dereferenceable(248) %0) local_unnamed_addr #0 align 2 {
  %2 = getelementptr inbounds nuw i8, ptr %0, i64 219
  %3 = load i8, ptr %2, align 1, !tbaa !99, !range !41, !noundef !42
  %4 = trunc nuw i8 %3 to i1
  %5 = getelementptr inbounds nuw i8, ptr %0, i64 168
  br i1 %4, label %6, label %9

6:                                                ; preds = %1
  %7 = tail call noundef zeroext i1 @_ZNK3net17PacketNumberQueue5EmptyEv(ptr noundef nonnull align 8 dereferenceable(48) %5)
  %8 = xor i1 %7, true
  br label %19

9:                                                ; preds = %1
  %10 = tail call noundef i64 @_ZNK3net17PacketNumberQueue12NumIntervalsEv(ptr noundef nonnull align 8 dereferenceable(48) %5)
  %11 = icmp ugt i64 %10, 1
  br i1 %11, label %19, label %12

12:                                               ; preds = %9
  %13 = tail call noundef zeroext i1 @_ZNK3net17PacketNumberQueue5EmptyEv(ptr noundef nonnull align 8 dereferenceable(48) %5)
  br i1 %13, label %19, label %14

14:                                               ; preds = %12
  %15 = tail call noundef i64 @_ZNK3net17PacketNumberQueue3MinEv(ptr noundef nonnull align 8 dereferenceable(48) %5)
  %16 = getelementptr inbounds nuw i8, ptr %0, i64 112
  %17 = load i64, ptr %16, align 8, !tbaa !100
  %.sroa.speculated = tail call i64 @llvm.umax.i64(i64 %17, i64 1)
  %18 = icmp ugt i64 %15, %.sroa.speculated
  br label %19

19:                                               ; preds = %9, %14, %12, %6
  %.0 = phi i1 [ %8, %6 ], [ true, %9 ], [ false, %12 ], [ %18, %14 ]
  ret i1 %.0
}